target datalayout = "e-m:e-p270:32:32-p271:32:32-p272:64:64-i64:64-i128:128-f80:128-n8:16:32:64-S128"
target triple = "x86_64-pc-linux-gnu"

%class.insn_t = type { i64 }
%struct.state_t = type { i64, %class.regfile_t, %class.regfile_t.6, %"class.std::unordered_map", i64, i64, i8, i8, i8, i8, %"class.std::shared_ptr.9", %"class.std::shared_ptr.12", %"class.std::shared_ptr", %"class.std::shared_ptr", %"class.std::shared_ptr", %"class.std::shared_ptr", %"class.std::shared_ptr", %"class.std::shared_ptr.15", %"class.std::shared_ptr.15", %"class.std::shared_ptr.18", %"class.std::shared_ptr.21", %"class.std::shared_ptr", %"class.std::shared_ptr", %"class.std::shared_ptr", [29 x %"class.std::shared_ptr"], %"class.std::shared_ptr", %"class.std::shared_ptr", %"class.std::shared_ptr", %"class.std::shared_ptr", %"class.std::shared_ptr", %"class.std::shared_ptr", %"class.std::shared_ptr.24", %"class.std::shared_ptr", %"class.std::shared_ptr", %"class.std::shared_ptr", %"class.std::shared_ptr", %"class.std::shared_ptr", %"class.std::shared_ptr.0", %"class.std::shared_ptr", %"class.std::shared_ptr", %"class.std::shared_ptr", %"class.std::shared_ptr", %"class.std::shared_ptr", %"class.std::shared_ptr", %"class.std::shared_ptr", %"class.std::shared_ptr", %"class.std::shared_ptr", %"class.std::shared_ptr.27", %"class.std::shared_ptr.30", %"class.std::shared_ptr.3", %"class.std::shared_ptr", %"class.std::shared_ptr", %"class.std::shared_ptr", %"class.std::shared_ptr", %"class.std::shared_ptr", %"class.std::shared_ptr", %"class.std::shared_ptr.33", %"class.std::shared_ptr", %"class.std::shared_ptr", %"class.std::shared_ptr", %"class.std::shared_ptr", %"class.std::shared_ptr", i8, %"class.std::shared_ptr.36", [64 x %"class.std::shared_ptr.39"], %"class.std::shared_ptr.42", %"class.std::shared_ptr.42", %"class.std::shared_ptr", %"class.std::shared_ptr", %"class.std::shared_ptr", [4 x %"class.std::shared_ptr"], [4 x %"class.std::shared_ptr"], [4 x %"class.std::shared_ptr"], %"class.std::shared_ptr", %"class.std::shared_ptr.45", %"class.std::shared_ptr", %"class.std::shared_ptr", %"class.std::shared_ptr", %"class.std::shared_ptr", i8, i32, %"class.std::unordered_map.48", %"class.std::vector", %"class.std::vector", i64, i32, i32 }
%class.regfile_t = type { [32 x i64] }
%class.regfile_t.6 = type { [32 x %struct.float128_t] }
%struct.float128_t = type { [2 x i64] }
%"class.std::unordered_map" = type { %"class.std::_Hashtable" }
%"class.std::_Hashtable" = type { ptr, i64, %"struct.std::__detail::_Hash_node_base", i64, %"struct.std::__detail::_Prime_rehash_policy", ptr }
%"struct.std::__detail::_Hash_node_base" = type { ptr }
%"struct.std::__detail::_Prime_rehash_policy" = type { float, i64 }
%"class.std::shared_ptr.9" = type { %"class.std::__shared_ptr.10" }
%"class.std::__shared_ptr.10" = type { ptr, %"class.std::__shared_count" }
%"class.std::__shared_count" = type { ptr }
%"class.std::shared_ptr.12" = type { %"class.std::__shared_ptr.13" }
%"class.std::__shared_ptr.13" = type { ptr, %"class.std::__shared_count" }
%"class.std::shared_ptr.15" = type { %"class.std::__shared_ptr.16" }
%"class.std::__shared_ptr.16" = type { ptr, %"class.std::__shared_count" }
%"class.std::shared_ptr.18" = type { %"class.std::__shared_ptr.19" }
%"class.std::__shared_ptr.19" = type { ptr, %"class.std::__shared_count" }
%"class.std::shared_ptr.21" = type { %"class.std::__shared_ptr.22" }
%"class.std::__shared_ptr.22" = type { ptr, %"class.std::__shared_count" }
%"class.std::shared_ptr.24" = type { %"class.std::__shared_ptr.25" }
%"class.std::__shared_ptr.25" = type { ptr, %"class.std::__shared_count" }
%"class.std::shared_ptr.0" = type { %"class.std::__shared_ptr.1" }
%"class.std::__shared_ptr.1" = type { ptr, %"class.std::__shared_count" }
%"class.std::shared_ptr.27" = type { %"class.std::__shared_ptr.28" }
%"class.std::__shared_ptr.28" = type { ptr, %"class.std::__shared_count" }
%"class.std::shared_ptr.30" = type { %"class.std::__shared_ptr.31" }
%"class.std::__shared_ptr.31" = type { ptr, %"class.std::__shared_count" }
%"class.std::shared_ptr.3" = type { %"class.std::__shared_ptr.4" }
%"class.std::__shared_ptr.4" = type { ptr, %"class.std::__shared_count" }
%"class.std::shared_ptr.33" = type { %"class.std::__shared_ptr.34" }
%"class.std::__shared_ptr.34" = type { ptr, %"class.std::__shared_count" }
%"class.std::shared_ptr.36" = type { %"class.std::__shared_ptr.37" }
%"class.std::__shared_ptr.37" = type { ptr, %"class.std::__shared_count" }
%"class.std::shared_ptr.39" = type { %"class.std::__shared_ptr.40" }
%"class.std::__shared_ptr.40" = type { ptr, %"class.std::__shared_count" }
%"class.std::shared_ptr.42" = type { %"class.std::__shared_ptr.43" }
%"class.std::__shared_ptr.43" = type { ptr, %"class.std::__shared_count" }
%"class.std::shared_ptr.45" = type { %"class.std::__shared_ptr.46" }
%"class.std::__shared_ptr.46" = type { ptr, %"class.std::__shared_count" }
%"class.std::shared_ptr" = type { %"class.std::__shared_ptr" }
%"class.std::__shared_ptr" = type { ptr, %"class.std::__shared_count" }
%"class.std::unordered_map.48" = type { %"class.std::_Hashtable.49" }
%"class.std::_Hashtable.49" = type { ptr, i64, %"struct.std::__detail::_Hash_node_base", i64, %"struct.std::__detail::_Prime_rehash_policy", ptr }
%"class.std::vector" = type { %"struct.std::_Vector_base" }
%"struct.std::_Vector_base" = type { %"struct.std::_Vector_base<std::tuple<unsigned long, unsigned long, unsigned char>, std::allocator<std::tuple<unsigned long, unsigned long, unsigned char>>>::_Vector_impl" }
%"struct.std::_Vector_base<std::tuple<unsigned long, unsigned long, unsigned char>, std::allocator<std::tuple<unsigned long, unsigned long, unsigned char>>>::_Vector_impl" = type { %"struct.std::_Vector_base<std::tuple<unsigned long, unsigned long, unsigned char>, std::allocator<std::tuple<unsigned long, unsigned long, unsigned char>>>::_Vector_impl_data" }
%"struct.std::_Vector_base<std::tuple<unsigned long, unsigned long, unsigned char>, std::allocator<std::tuple<unsigned long, unsigned long, unsigned char>>>::_Vector_impl_data" = type { ptr, ptr, ptr }
%class.processor_t = type { %class.abstract_device_t, i8, i32, ptr, ptr, ptr, ptr, %"class.std::unordered_map.65", ptr, %struct.state_t, i32, i32, i8, i8, ptr, %"class.std::basic_ostream", i8, i8, i8, %"class.std::vector.85", %"class.std::bitset", %"class.std::bitset", %"class.std::bitset", %"class.std::vector.89", %"class.std::unordered_map.94", [8191 x %struct.insn_desc_t], i64, i64, i64, %class.entropy_source, i64, i64, %class.vectorUnit_t, %"class.triggers::module_t" }
%class.abstract_device_t = type { ptr }
%"class.std::unordered_map.65" = type { %"class.std::_Hashtable.66" }
%"class.std::_Hashtable.66" = type { ptr, i64, %"struct.std::__detail::_Hash_node_base", i64, %"struct.std::__detail::_Prime_rehash_policy", ptr }
%"class.std::basic_ostream" = type { ptr, %"class.std::basic_ios" }
%"class.std::basic_ios" = type { %"class.std::ios_base", ptr, i8, i8, ptr, ptr, ptr, ptr }
%"class.std::ios_base" = type { ptr, i64, i64, i32, i32, i32, ptr, %"struct.std::ios_base::_Words", [8 x %"struct.std::ios_base::_Words"], i32, ptr, %"class.std::locale" }
%"struct.std::ios_base::_Words" = type { ptr, i64 }
%"class.std::locale" = type { ptr }
%"class.std::vector.85" = type { %"struct.std::_Bvector_base" }
%"struct.std::_Bvector_base" = type { %"struct.std::_Bvector_base<std::allocator<bool>>::_Bvector_impl" }
%"struct.std::_Bvector_base<std::allocator<bool>>::_Bvector_impl" = type { %"struct.std::_Bvector_base<std::allocator<bool>>::_Bvector_impl_data" }
%"struct.std::_Bvector_base<std::allocator<bool>>::_Bvector_impl_data" = type { %"struct.std::_Bit_iterator", %"struct.std::_Bit_iterator", ptr }
%"struct.std::_Bit_iterator" = type { %"struct.std::_Bit_iterator_base.base", [4 x i8] }
%"struct.std::_Bit_iterator_base.base" = type <{ ptr, i32 }>
%"class.std::bitset" = type { %"struct.std::_Base_bitset" }
%"struct.std::_Base_bitset" = type { [3 x i64] }
%"class.std::vector.89" = type { %"struct.std::_Vector_base.90" }
%"struct.std::_Vector_base.90" = type { %"struct.std::_Vector_base<insn_desc_t, std::allocator<insn_desc_t>>::_Vector_impl" }
%"struct.std::_Vector_base<insn_desc_t, std::allocator<insn_desc_t>>::_Vector_impl" = type { %"struct.std::_Vector_base<insn_desc_t, std::allocator<insn_desc_t>>::_Vector_impl_data" }
%"struct.std::_Vector_base<insn_desc_t, std::allocator<insn_desc_t>>::_Vector_impl_data" = type { ptr, ptr, ptr }
%"class.std::unordered_map.94" = type { %"class.std::_Hashtable.95" }
%"class.std::_Hashtable.95" = type { ptr, i64, %"struct.std::__detail::_Hash_node_base", i64, %"struct.std::__detail::_Prime_rehash_policy", ptr }
%struct.insn_desc_t = type { i64, i64, ptr, ptr, ptr, ptr, ptr, ptr, ptr, ptr }
%class.entropy_source = type { %"class.std::__cxx11::basic_string" }
%"class.std::__cxx11::basic_string" = type { %"struct.std::__cxx11::basic_string<char>::_Alloc_hider", i64, %union.anon }
%"struct.std::__cxx11::basic_string<char>::_Alloc_hider" = type { ptr }
%union.anon = type { i64, [8 x i8] }
%class.vectorUnit_t = type <{ ptr, ptr, [32 x i8], i32, [4 x i8], i64, i64, %"class.std::shared_ptr", %"class.std::shared_ptr.111", %"class.std::shared_ptr.111", %"class.std::shared_ptr.111", %"class.std::shared_ptr.111", i64, i64, i64, float, [4 x i8], i64, i64, i8, i8, [6 x i8] }>
%"class.std::shared_ptr.111" = type { %"class.std::__shared_ptr.112" }
%"class.std::__shared_ptr.112" = type { ptr, %"class.std::__shared_count" }
%"class.triggers::module_t" = type { ptr, %"class.std::vector.114" }
%"class.std::vector.114" = type { %"struct.std::_Vector_base.115" }
%"struct.std::_Vector_base.115" = type { %"struct.std::_Vector_base<triggers::trigger_t *, std::allocator<triggers::trigger_t *>>::_Vector_impl" }
%"struct.std::_Vector_base<triggers::trigger_t *, std::allocator<triggers::trigger_t *>>::_Vector_impl" = type { %"struct.std::_Vector_base<triggers::trigger_t *, std::allocator<triggers::trigger_t *>>::_Vector_impl_data" }
%"struct.std::_Vector_base<triggers::trigger_t *, std::allocator<triggers::trigger_t *>>::_Vector_impl_data" = type { ptr, ptr, ptr }
%class.insn_trap_t = type { %class.trap_t, i8, i64 }
%class.trap_t = type { ptr, i64 }

@_ZTI24trap_illegal_instruction = linkonce_odr constant { ptr, ptr, ptr } { ptr getelementptr inbounds (ptr, ptr @_ZTVN10__cxxabiv120__si_class_type_infoE, i64 2), ptr @_ZTS24trap_illegal_instruction, ptr @_ZTI11insn_trap_t }, comdat, align 8

; Function Attrs: mustprogress nounwind uwtable
define linkonce_odr void @_ZN6trap_tC2Em(ptr noundef nonnull align 8 dereferenceable(16) %0, i64 noundef %1) unnamed_addr #5 comdat align 2 {
  %3 = alloca ptr, align 8
  %4 = alloca i64, align 8
  store ptr %0, ptr %3, align 8
  store i64 %1, ptr %4, align 8
  %5 = load ptr, ptr %3, align 8
  store ptr getelementptr inbounds ({ [12 x ptr] }, ptr @_ZTV6trap_t, i32 0, i32 0, i32 2), ptr %5, align 8
  %6 = getelementptr inbounds %class.trap_t, ptr %5, i32 0, i32 1
  %7 = load i64, ptr %4, align 8
  store i64 %7, ptr %6, align 8
  ret void
}

; Function Attrs: mustprogress nounwind uwtable
define linkonce_odr noundef ptr @_ZNKSt12__shared_ptrI13sstatus_csr_tLN9__gnu_cxx12_Lock_policyE2EE3getEv(ptr noundef nonnull align 8 dereferenceable(16) %0) #5 comdat align 2 {
  %2 = alloca ptr, align 8
  store ptr %0, ptr %2, align 8
  %3 = load ptr, ptr %2, align 8
  %4 = getelementptr inbounds %"class.std::__shared_ptr.31", ptr %3, i32 0, i32 0
  %5 = load ptr, ptr %4, align 8
  ret ptr %5
}

; Function Attrs: mustprogress uwtable
define linkonce_odr void @_ZN11insn_trap_tC2Embm(ptr noundef nonnull align 8 dereferenceable(32) %0, i64 noundef %1, i1 noundef zeroext %2, i64 noundef %3) unnamed_addr #4 comdat align 2 {
  %5 = alloca ptr, align 8
  %6 = alloca i64, align 8
  %7 = alloca i8, align 1
  %8 = alloca i64, align 8
  store ptr %0, ptr %5, align 8
  store i64 %1, ptr %6, align 8
  %9 = zext i1 %2 to i8
  store i8 %9, ptr %7, align 1
  store i64 %3, ptr %8, align 8
  %10 = load ptr, ptr %5, align 8
  %11 = load i64, ptr %6, align 8
  call void @_ZN6trap_tC2Em(ptr noundef nonnull align 8 dereferenceable(16) %10, i64 noundef %11)
  store ptr getelementptr inbounds ({ [12 x ptr] }, ptr @_ZTV11insn_trap_t, i32 0, i32 0, i32 2), ptr %10, align 8
  %12 = getelementptr inbounds %class.insn_trap_t, ptr %10, i32 0, i32 1
  %13 = load i8, ptr %7, align 1
  %14 = trunc i8 %13 to i1
  %15 = zext i1 %14 to i8
  store i8 %15, ptr %12, align 8
  %16 = getelementptr inbounds %class.insn_trap_t, ptr %10, i32 0, i32 2
  %17 = load i64, ptr %8, align 8
  store i64 %17, ptr %16, align 8
  ret void
}

; Function Attrs: mustprogress nounwind uwtable
define linkonce_odr noundef ptr @_ZNKSt19__shared_ptr_accessI13sstatus_csr_tLN9__gnu_cxx12_Lock_policyE2ELb0ELb0EE6_M_getEv(ptr noundef nonnull align 1 dereferenceable(1) %0) #5 comdat align 2 {
  %2 = alloca ptr, align 8
  store ptr %0, ptr %2, align 8
  %3 = load ptr, ptr %2, align 8
  %4 = call noundef ptr @_ZNKSt12__shared_ptrI13sstatus_csr_tLN9__gnu_cxx12_Lock_policyE2EE3getEv(ptr noundef nonnull align 8 dereferenceable(16) %3) #3
  ret ptr %4
}

; Function Attrs: mustprogress uwtable
define linkonce_odr void @_ZN24trap_illegal_instructionC2Em(ptr noundef nonnull align 8 dereferenceable(32) %0, i64 noundef %1) unnamed_addr #4 comdat align 2 {
  %3 = alloca ptr, align 8
  %4 = alloca i64, align 8
  store ptr %0, ptr %3, align 8
  store i64 %1, ptr %4, align 8
  %5 = load ptr, ptr %3, align 8
  %6 = load i64, ptr %4, align 8
  call void @_ZN11insn_trap_tC2Embm(ptr noundef nonnull align 8 dereferenceable(32) %5, i64 noundef 2, i1 noundef zeroext false, i64 noundef %6)
  store ptr getelementptr inbounds ({ [12 x ptr] }, ptr @_ZTV24trap_illegal_instruction, i32 0, i32 0, i32 2), ptr %5, align 8
  ret void
}

; Function Attrs: mustprogress nounwind uwtable
define linkonce_odr noundef i64 @_ZN6insn_t4bitsEv(ptr noundef nonnull align 8 dereferenceable(8) %0) #5 comdat align 2 {
  %2 = alloca ptr, align 8
  store ptr %0, ptr %2, align 8
  %3 = load ptr, ptr %2, align 8
  %4 = getelementptr inbounds %class.insn_t, ptr %3, i32 0, i32 0
  %5 = load i64, ptr %4, align 8
  ret i64 %5
}

; Function Attrs: mustprogress nounwind uwtable
define linkonce_odr noundef ptr @_ZNKSt19__shared_ptr_accessI13sstatus_csr_tLN9__gnu_cxx12_Lock_policyE2ELb0ELb0EEptEv(ptr noundef nonnull align 1 dereferenceable(1) %0) #5 comdat align 2 {
  %2 = alloca ptr, align 8
  store ptr %0, ptr %2, align 8
  %3 = load ptr, ptr %2, align 8
  %4 = call noundef ptr @_ZNKSt19__shared_ptr_accessI13sstatus_csr_tLN9__gnu_cxx12_Lock_policyE2ELb0ELb0EE6_M_getEv(ptr noundef nonnull align 1 dereferenceable(1) %3) #3
  ret ptr %4
}

; Function Attrs: mustprogress nounwind uwtable
define linkonce_odr noundef ptr @_ZN11processor_t9get_stateEv(ptr noundef nonnull align 8 dereferenceable(659880) %0) #5 comdat align 2 {
  %2 = alloca ptr, align 8
  store ptr %0, ptr %2, align 8
  %3 = load ptr, ptr %2, align 8
  %4 = getelementptr inbounds %class.processor_t, ptr %3, i32 0, i32 9
  ret ptr %4
}

; Function Attrs: mustprogress uwtable
define noundef i64 @_Z19logged_rv32e_kadd32P11processor_t6insn_tm(ptr noundef %0, i64 %1, i64 noundef %2) #4 personality ptr @__gxx_personality_v0 {
  %4 = alloca %class.insn_t, align 8
  %5 = alloca ptr, align 8
  %6 = alloca i64, align 8
  %7 = alloca i64, align 8
  %8 = alloca ptr, align 8
  %9 = alloca i1, align 1
  %10 = alloca ptr, align 8
  %11 = alloca i32, align 4
  %12 = getelementptr inbounds %class.insn_t, ptr %4, i32 0, i32 0
  store i64 %1, ptr %12, align 8
  store ptr %0, ptr %5, align 8
  store i64 %2, ptr %6, align 8
  %13 = load i64, ptr %6, align 8
  %14 = add i64 %13, 4
  %15 = shl i64 %14, 32
  %16 = ashr i64 %15, 32
  store i64 %16, ptr %7, align 8
  %17 = load ptr, ptr %5, align 8
  %18 = call noundef ptr @_ZN11processor_t9get_stateEv(ptr noundef nonnull align 8 dereferenceable(659880) %17)
  %19 = getelementptr inbounds %struct.state_t, ptr %18, i32 0, i32 48
  %20 = call noundef ptr @_ZNKSt19__shared_ptr_accessI13sstatus_csr_tLN9__gnu_cxx12_Lock_policyE2ELb0ELb0EEptEv(ptr noundef nonnull align 1 dereferenceable(1) %19) #3
  %21 = call noundef zeroext i1 @_ZN13sstatus_csr_t7enabledEm(ptr noundef nonnull align 8 dereferenceable(104) %20, i64 noundef 1536)
  %22 = xor i1 %21, true
  store i1 false, ptr %9, align 1
  br i1 %22, label %23, label %29

23:                                               ; preds = %3
  %24 = call ptr @__cxa_allocate_exception(i64 32) #3
  store ptr %24, ptr %8, align 8
  store i1 true, ptr %9, align 1
  %25 = invoke noundef i64 @_ZN6insn_t4bitsEv(ptr noundef nonnull align 8 dereferenceable(8) %4)
          to label %26 unwind label %35

26:                                               ; preds = %23
  invoke void @_ZN24trap_illegal_instructionC2Em(ptr noundef nonnull align 8 dereferenceable(32) %24, i64 noundef %25)
          to label %27 unwind label %35

27:                                               ; preds = %26
  call void @__cxa_throw(ptr %24, ptr @_ZTI24trap_illegal_instruction, ptr @_ZN24trap_illegal_instructionD2Ev) #13
  unreachable

28:                                               ; No predecessors!
  br label %30

29:                                               ; preds = %3
  br label %30

30:                                               ; preds = %29, %28
  %31 = call ptr @__cxa_allocate_exception(i64 32) #3
  %32 = invoke noundef i64 @_ZN6insn_t4bitsEv(ptr noundef nonnull align 8 dereferenceable(8) %4)
          to label %33 unwind label %43

33:                                               ; preds = %30
  invoke void @_ZN24trap_illegal_instructionC2Em(ptr noundef nonnull align 8 dereferenceable(32) %31, i64 noundef %32)
          to label %34 unwind label %43

34:                                               ; preds = %33
  call void @__cxa_throw(ptr %31, ptr @_ZTI24trap_illegal_instruction, ptr @_ZN24trap_illegal_instructionD2Ev) #13
  unreachable

35:                                               ; preds = %26, %23
  %36 = landingpad { ptr, i32 }
          cleanup
  %37 = extractvalue { ptr, i32 } %36, 0
  store ptr %37, ptr %10, align 8
  %38 = extractvalue { ptr, i32 } %36, 1
  store i32 %38, ptr %11, align 4
  %39 = load i1, ptr %9, align 1
  br i1 %39, label %40, label %42

40:                                               ; preds = %35
  %41 = load ptr, ptr %8, align 8
  call void @__cxa_free_exception(ptr %41) #3
  br label %42

42:                                               ; preds = %40, %35
  br label %47

43:                                               ; preds = %33, %30
  %44 = landingpad { ptr, i32 }
          cleanup
  %45 = extractvalue { ptr, i32 } %44, 0
  store ptr %45, ptr %10, align 8
  %46 = extractvalue { ptr, i32 } %44, 1
  store i32 %46, ptr %11, align 4
  call void @__cxa_free_exception(ptr %31) #3
  br label %47

47:                                               ; preds = %43, %42
  %48 = load ptr, ptr %10, align 8
  %49 = load i32, ptr %11, align 4
  %50 = insertvalue { ptr, i32 } poison, ptr %48, 0
  %51 = insertvalue { ptr, i32 } %50, i32 %49, 1
  resume { ptr, i32 } %51
}